(dp0
S'engine'
p1
S'pdflatex'
p2
sS'packages'
p3
c__builtin__
set
p4
((lp5
S'caption'
p6
aS'subcaption'
p7
aS'camel'
p8
atp9
Rp10
sS'files_with_guttermarks'
p11
g4
((lp12
S'/Users/scmde/Dropbox/sites/camel/data/tex/MA0000/./main.tex'
p13
aS'main.tex'
p14
aS'/Users/scmde/Dropbox/sites/camel/data/tex/MA0000/main.tex'
p15
atp16
Rp17
sS'synctex'
p18
I01
s.